; Function Attrs: mustprogress uwtable
define noundef ptr @_ZNK4LIEF5MachO17DyldChainedFixups5cloneEv(ptr noundef nonnull align 8 dereferenceable(184) %0) unnamed_addr #3 align 2 personality ptr @__gxx_personality_v0 {
  %2 = tail call noalias noundef nonnull dereferenceable(184) ptr @_Znwm(i64 noundef 184) #24
  invoke void @_ZN4LIEF5MachO17DyldChainedFixupsC1ERKS1_(ptr noundef nonnull align 8 dereferenceable(184) %2, ptr noundef nonnull align 8 dereferenceable(184) %0)
          to label %3 unwind label %4

3:                                                ; preds = %1
  ret ptr %2

4:                                                ; preds = %1
  %5 = landingpad { ptr, i32 }
          cleanup
  tail call void @_ZdlPv(ptr noundef nonnull %2) #23
  resume { ptr, i32 } %5
}